target datalayout = "e-m:e-p270:32:32-p271:32:32-p272:64:64-i64:64-i128:128-f80:128-n8:16:32:64-S128"
target triple = "x86_64-unknown-linux-gnu"

%"class.std::__shared_count" = type { ptr }
%"class.std::shared_ptr.3" = type { %"class.std::__shared_ptr.4" }
%"class.std::__shared_ptr.4" = type { ptr, %"class.std::__shared_count" }
%"class.arrow::Future.23" = type { %"class.std::shared_ptr.3" }

; Function Attrs: mustprogress uwtable
define void @_ZN5arrow2io11InputStream17ReadMetadataAsyncEv(ptr noalias sret(%"class.arrow::Future.23") align 8 %agg.result, ptr noundef nonnull align 8 dereferenceable(8) %this) #0 align 2 {
entry:
  %result.ptr = alloca ptr, align 8
  %this.addr = alloca ptr, align 8
  store ptr %agg.result, ptr %result.ptr, align 8
  store ptr %this, ptr %this.addr, align 8
  %this1 = load ptr, ptr %this.addr, align 8
  %vtable = load ptr, ptr %this1, align 8
  %vbase.offset.ptr = getelementptr i8, ptr %vtable, i64 -64
  %vbase.offset = load i64, ptr %vbase.offset.ptr, align 8
  %add.ptr = getelementptr inbounds i8, ptr %this1, i64 %vbase.offset
  %vtable2 = load ptr, ptr %add.ptr, align 8
  %vfn = getelementptr inbounds ptr, ptr %vtable2, i64 4
  %0 = load ptr, ptr %vfn, align 8
  %call = call noundef nonnull align 8 dereferenceable(40) ptr %0(ptr noundef nonnull align 8 dereferenceable(8) %add.ptr)
  %vtable3 = load ptr, ptr %this1, align 8
  %vfn4 = getelementptr inbounds ptr, ptr %vtable3, i64 8
  %1 = load ptr, ptr %vfn4, align 8
  call void %1(ptr sret(%"class.arrow::Future.23") align 8 %agg.result, ptr noundef nonnull align 8 dereferenceable(8) %this1, ptr noundef nonnull align 8 dereferenceable(40) %call)
  ret void
}